target datalayout = "e-m:e-p270:32:32-p271:32:32-p272:64:64-i64:64-i128:128-f80:128-n8:16:32:64-S128"
target triple = "x86_64-pc-linux-gnu"

%struct.Res6_Man_t_ = type { i32, i32, i32, i32, i32, i32, %struct.Vec_Wrd_t_, %struct.Vec_Wrd_t_, ptr, ptr, %struct.Vec_Int_t_, %struct.Vec_Int_t_, %struct.Vec_Int_t_, %struct.Vec_Int_t_ }
%struct.Vec_Wrd_t_ = type { i32, i32, ptr }
%struct.Vec_Int_t_ = type { i32, i32, ptr }

@.str = private unnamed_addr constant [3 x i8] c"rb\00", align 1
@.str.1 = private unnamed_addr constant [30 x i8] c"Cannot open input file \22%s\22.\0A\00", align 1
@.str.2 = private unnamed_addr constant [49 x i8] c"Cannot read the header line of input file \22%s\22.\0A\00", align 1
@.str.3 = private unnamed_addr constant [15 x i8] c"%s %d %d %d %d\00", align 1
@.str.4 = private unnamed_addr constant [64 x i8] c"Cannot read the parameters from the header of input file \22%s\22.\0A\00", align 1
@.str.5 = private unnamed_addr constant [41 x i8] c"Cannot read line %d of input file \22%s\22.\0A\00", align 1

; Function Attrs: inlinehint nounwind uwtable
define internal void @Abc_TtSetBit(ptr noundef %0, i32 noundef %1) #2 {
  %3 = alloca ptr, align 8
  %4 = alloca i32, align 4
  store ptr %0, ptr %3, align 8, !tbaa !28
  store i32 %1, ptr %4, align 4, !tbaa !19
  %5 = load i32, ptr %4, align 4, !tbaa !19
  %6 = and i32 %5, 63
  %7 = zext i32 %6 to i64
  %8 = shl i64 1, %7
  %9 = load ptr, ptr %3, align 8, !tbaa !28
  %10 = load i32, ptr %4, align 4, !tbaa !19
  %11 = ashr i32 %10, 6
  %12 = sext i32 %11 to i64
  %13 = getelementptr inbounds i64, ptr %9, i64 %12
  %14 = load i64, ptr %13, align 8, !tbaa !48
  %15 = or i64 %14, %8
  store i64 %15, ptr %13, align 8, !tbaa !48
  ret void
}

; Function Attrs: nounwind uwtable
define ptr @Res6_ManRead(ptr noundef %0) #0 {
  %2 = alloca ptr, align 8
  %3 = alloca ptr, align 8
  %4 = alloca ptr, align 8
  %5 = alloca ptr, align 8
  %6 = alloca i32, align 4
  %7 = alloca i32, align 4
  %8 = alloca i32, align 4
  %9 = alloca i32, align 4
  %10 = alloca i32, align 4
  %11 = alloca i32, align 4
  %12 = alloca [100 x i8], align 16
  %13 = alloca [100 x i8], align 16
  %14 = alloca ptr, align 8
  %15 = alloca i32, align 4
  %16 = alloca ptr, align 8
  %17 = alloca ptr, align 8
  store ptr %0, ptr %3, align 8, !tbaa !3
  call void @llvm.lifetime.start.p0(i64 8, ptr %4) #11
  store ptr null, ptr %4, align 8, !tbaa !17
  call void @llvm.lifetime.start.p0(i64 8, ptr %5) #11
  %18 = load ptr, ptr %3, align 8, !tbaa !3
  %19 = call noalias ptr @fopen(ptr noundef %18, ptr noundef @.str)
  store ptr %19, ptr %5, align 8, !tbaa !58
  %20 = load ptr, ptr %5, align 8, !tbaa !58
  %21 = icmp eq ptr %20, null
  br i1 %21, label %22, label %25

22:                                               ; preds = %1
  %23 = load ptr, ptr %3, align 8, !tbaa !3
  %24 = call i32 (ptr, ...) @printf(ptr noundef @.str.1, ptr noundef %23)
  br label %212

25:                                               ; preds = %1
  call void @llvm.lifetime.start.p0(i64 4, ptr %6) #11
  call void @llvm.lifetime.start.p0(i64 4, ptr %7) #11
  call void @llvm.lifetime.start.p0(i64 4, ptr %8) #11
  call void @llvm.lifetime.start.p0(i64 4, ptr %9) #11
  call void @llvm.lifetime.start.p0(i64 4, ptr %10) #11
  call void @llvm.lifetime.start.p0(i64 4, ptr %11) #11
  call void @llvm.lifetime.start.p0(i64 100, ptr %12) #11
  call void @llvm.lifetime.start.p0(i64 100, ptr %13) #11
  call void @llvm.lifetime.start.p0(i64 8, ptr %14) #11
  %26 = getelementptr inbounds [100 x i8], ptr %13, i64 0, i64 0
  %27 = load ptr, ptr %5, align 8, !tbaa !58
  %28 = call ptr @fgets(ptr noundef %26, i32 noundef 100, ptr noundef %27)
  store ptr %28, ptr %14, align 8, !tbaa !3
  %29 = load ptr, ptr %14, align 8, !tbaa !3
  %30 = icmp eq ptr %29, null
  br i1 %30, label %31, label %34

31:                                               ; preds = %25
  %32 = load ptr, ptr %3, align 8, !tbaa !3
  %33 = call i32 (ptr, ...) @printf(ptr noundef @.str.2, ptr noundef %32)
  store ptr null, ptr %2, align 8
  store i32 1, ptr %15, align 4
  br label %209

34:                                               ; preds = %25
  %35 = load ptr, ptr %14, align 8, !tbaa !3
  %36 = getelementptr inbounds [100 x i8], ptr %12, i64 0, i64 0
  %37 = call i32 (ptr, ptr, ...) @__isoc99_sscanf(ptr noundef %35, ptr noundef @.str.3, ptr noundef %36, ptr noundef %8, ptr noundef %9, ptr noundef %10, ptr noundef %11) #11
  %38 = icmp ne i32 5, %37
  br i1 %38, label %39, label %42

39:                                               ; preds = %34
  %40 = load ptr, ptr %3, align 8, !tbaa !3
  %41 = call i32 (ptr, ...) @printf(ptr noundef @.str.4, ptr noundef %40)
  store ptr null, ptr %2, align 8
  store i32 1, ptr %15, align 4
  br label %209

42:                                               ; preds = %34
  %43 = load i32, ptr %8, align 4, !tbaa !19
  %44 = load i32, ptr %9, align 4, !tbaa !19
  %45 = load i32, ptr %10, align 4, !tbaa !19
  %46 = load i32, ptr %11, align 4, !tbaa !19
  %47 = call ptr @Res6_ManStart(i32 noundef %43, i32 noundef %44, i32 noundef %45, i32 noundef %46)
  store ptr %47, ptr %4, align 8, !tbaa !17
  %48 = load i32, ptr %11, align 4, !tbaa !19
  %49 = add nsw i32 %48, 100
  %50 = sext i32 %49 to i64
  %51 = mul i64 1, %50
  %52 = call noalias ptr @malloc(i64 noundef %51) #13
  store ptr %52, ptr %14, align 8, !tbaa !3
  store i32 1, ptr %6, align 4, !tbaa !19
  br label %53

53:                                               ; preds = %133, %42
  %54 = load i32, ptr %6, align 4, !tbaa !19
  %55 = load ptr, ptr %4, align 8, !tbaa !17
  %56 = getelementptr inbounds nuw %struct.Res6_Man_t_, ptr %55, i32 0, i32 1
  %57 = load i32, ptr %56, align 4, !tbaa !20
  %58 = icmp slt i32 %54, %57
  br i1 %58, label %59, label %136

59:                                               ; preds = %53
  call void @llvm.lifetime.start.p0(i64 8, ptr %16) #11
  %60 = load ptr, ptr %14, align 8, !tbaa !3
  %61 = load i32, ptr %11, align 4, !tbaa !19
  %62 = add nsw i32 %61, 100
  %63 = load ptr, ptr %5, align 8, !tbaa !58
  %64 = call ptr @fgets(ptr noundef %60, i32 noundef %62, ptr noundef %63)
  store ptr %64, ptr %16, align 8, !tbaa !3
  %65 = load ptr, ptr %16, align 8, !tbaa !3
  %66 = icmp eq ptr %65, null
  br i1 %66, label %67, label %80

67:                                               ; preds = %59
  %68 = load i32, ptr %6, align 4, !tbaa !19
  %69 = load ptr, ptr %3, align 8, !tbaa !3
  %70 = call i32 (ptr, ...) @printf(ptr noundef @.str.5, i32 noundef %68, ptr noundef %69)
  %71 = load ptr, ptr %4, align 8, !tbaa !17
  call void @Res6_ManStop(ptr noundef %71)
  %72 = load ptr, ptr %14, align 8, !tbaa !3
  %73 = icmp ne ptr %72, null
  br i1 %73, label %74, label %76

74:                                               ; preds = %67
  %75 = load ptr, ptr %14, align 8, !tbaa !3
  call void @free(ptr noundef %75) #11
  store ptr null, ptr %14, align 8, !tbaa !3
  br label %77

76:                                               ; preds = %67
  br label %77

77:                                               ; preds = %76, %74
  %78 = load ptr, ptr %5, align 8, !tbaa !58
  %79 = call i32 @fclose(ptr noundef %78)
  store ptr null, ptr %2, align 8
  store i32 1, ptr %15, align 4
  br label %130

80:                                               ; preds = %59
  store i32 0, ptr %7, align 4, !tbaa !19
  br label %81

81:                                               ; preds = %126, %80
  %82 = load i32, ptr %7, align 4, !tbaa !19
  %83 = load ptr, ptr %4, align 8, !tbaa !17
  %84 = getelementptr inbounds nuw %struct.Res6_Man_t_, ptr %83, i32 0, i32 4
  %85 = load i32, ptr %84, align 8, !tbaa !44
  %86 = icmp slt i32 %82, %85
  br i1 %86, label %87, label %129

87:                                               ; preds = %81
  %88 = load ptr, ptr %16, align 8, !tbaa !3
  %89 = load i32, ptr %7, align 4, !tbaa !19
  %90 = sext i32 %89 to i64
  %91 = getelementptr inbounds i8, ptr %88, i64 %90
  %92 = load i8, ptr %91, align 1, !tbaa !60
  %93 = sext i8 %92 to i32
  %94 = icmp eq i32 %93, 48
  br i1 %94, label %95, label %106

95:                                               ; preds = %87
  %96 = load ptr, ptr %4, align 8, !tbaa !17
  %97 = getelementptr inbounds nuw %struct.Res6_Man_t_, ptr %96, i32 0, i32 8
  %98 = load ptr, ptr %97, align 8, !tbaa !27
  %99 = load i32, ptr %6, align 4, !tbaa !19
  %100 = mul nsw i32 2, %99
  %101 = add nsw i32 %100, 1
  %102 = sext i32 %101 to i64
  %103 = getelementptr inbounds ptr, ptr %98, i64 %102
  %104 = load ptr, ptr %103, align 8, !tbaa !28
  %105 = load i32, ptr %7, align 4, !tbaa !19
  call void @Abc_TtSetBit(ptr noundef %104, i32 noundef %105)
  br label %125

106:                                              ; preds = %87
  %107 = load ptr, ptr %16, align 8, !tbaa !3
  %108 = load i32, ptr %7, align 4, !tbaa !19
  %109 = sext i32 %108 to i64
  %110 = getelementptr inbounds i8, ptr %107, i64 %109
  %111 = load i8, ptr %110, align 1, !tbaa !60
  %112 = sext i8 %111 to i32
  %113 = icmp eq i32 %112, 49
  br i1 %113, label %114, label %124

114:                                              ; preds = %106
  %115 = load ptr, ptr %4, align 8, !tbaa !17
  %116 = getelementptr inbounds nuw %struct.Res6_Man_t_, ptr %115, i32 0, i32 8
  %117 = load ptr, ptr %116, align 8, !tbaa !27
  %118 = load i32, ptr %6, align 4, !tbaa !19
  %119 = mul nsw i32 2, %118
  %120 = sext i32 %119 to i64
  %121 = getelementptr inbounds ptr, ptr %117, i64 %120
  %122 = load ptr, ptr %121, align 8, !tbaa !28
  %123 = load i32, ptr %7, align 4, !tbaa !19
  call void @Abc_TtSetBit(ptr noundef %122, i32 noundef %123)
  br label %124

124:                                              ; preds = %114, %106
  br label %125

125:                                              ; preds = %124, %95
  br label %126

126:                                              ; preds = %125
  %127 = load i32, ptr %7, align 4, !tbaa !19
  %128 = add nsw i32 %127, 1
  store i32 %128, ptr %7, align 4, !tbaa !19
  br label %81, !llvm.loop !61

129:                                              ; preds = %81
  store i32 0, ptr %15, align 4
  br label %130

130:                                              ; preds = %129, %77
  call void @llvm.lifetime.end.p0(i64 8, ptr %16) #11
  %131 = load i32, ptr %15, align 4
  switch i32 %131, label %209 [
    i32 0, label %132
  ]

132:                                              ; preds = %130
  br label %133

133:                                              ; preds = %132
  %134 = load i32, ptr %6, align 4, !tbaa !19
  %135 = add nsw i32 %134, 1
  store i32 %135, ptr %6, align 4, !tbaa !19
  br label %53, !llvm.loop !62

136:                                              ; preds = %53
  store i32 0, ptr %6, align 4, !tbaa !19
  br label %137

137:                                              ; preds = %197, %136
  %138 = load i32, ptr %6, align 4, !tbaa !19
  %139 = load ptr, ptr %4, align 8, !tbaa !17
  %140 = getelementptr inbounds nuw %struct.Res6_Man_t_, ptr %139, i32 0, i32 3
  %141 = load i32, ptr %140, align 4, !tbaa !34
  %142 = shl i32 1, %141
  %143 = icmp slt i32 %138, %142
  br i1 %143, label %144, label %200

144:                                              ; preds = %137
  call void @llvm.lifetime.start.p0(i64 8, ptr %17) #11
  %145 = load ptr, ptr %14, align 8, !tbaa !3
  %146 = load i32, ptr %11, align 4, !tbaa !19
  %147 = add nsw i32 %146, 100
  %148 = load ptr, ptr %5, align 8, !tbaa !58
  %149 = call ptr @fgets(ptr noundef %145, i32 noundef %147, ptr noundef %148)
  store ptr %149, ptr %17, align 8, !tbaa !3
  %150 = load ptr, ptr %17, align 8, !tbaa !3
  %151 = icmp eq ptr %150, null
  br i1 %151, label %152, label %165

152:                                              ; preds = %144
  %153 = load i32, ptr %6, align 4, !tbaa !19
  %154 = load ptr, ptr %3, align 8, !tbaa !3
  %155 = call i32 (ptr, ...) @printf(ptr noundef @.str.5, i32 noundef %153, ptr noundef %154)
  %156 = load ptr, ptr %4, align 8, !tbaa !17
  call void @Res6_ManStop(ptr noundef %156)
  %157 = load ptr, ptr %14, align 8, !tbaa !3
  %158 = icmp ne ptr %157, null
  br i1 %158, label %159, label %161

159:                                              ; preds = %152
  %160 = load ptr, ptr %14, align 8, !tbaa !3
  call void @free(ptr noundef %160) #11
  store ptr null, ptr %14, align 8, !tbaa !3
  br label %162

161:                                              ; preds = %152
  br label %162

162:                                              ; preds = %161, %159
  %163 = load ptr, ptr %5, align 8, !tbaa !58
  %164 = call i32 @fclose(ptr noundef %163)
  store ptr null, ptr %2, align 8
  store i32 1, ptr %15, align 4
  br label %194

165:                                              ; preds = %144
  store i32 0, ptr %7, align 4, !tbaa !19
  br label %166

166:                                              ; preds = %190, %165
  %167 = load i32, ptr %7, align 4, !tbaa !19
  %168 = load ptr, ptr %4, align 8, !tbaa !17
  %169 = getelementptr inbounds nuw %struct.Res6_Man_t_, ptr %168, i32 0, i32 4
  %170 = load i32, ptr %169, align 8, !tbaa !44
  %171 = icmp slt i32 %167, %170
  br i1 %171, label %172, label %193

172:                                              ; preds = %166
  %173 = load ptr, ptr %17, align 8, !tbaa !3
  %174 = load i32, ptr %7, align 4, !tbaa !19
  %175 = sext i32 %174 to i64
  %176 = getelementptr inbounds i8, ptr %173, i64 %175
  %177 = load i8, ptr %176, align 1, !tbaa !60
  %178 = sext i8 %177 to i32
  %179 = icmp eq i32 %178, 49
  br i1 %179, label %180, label %189

180:                                              ; preds = %172
  %181 = load ptr, ptr %4, align 8, !tbaa !17
  %182 = getelementptr inbounds nuw %struct.Res6_Man_t_, ptr %181, i32 0, i32 9
  %183 = load ptr, ptr %182, align 8, !tbaa !35
  %184 = load i32, ptr %6, align 4, !tbaa !19
  %185 = sext i32 %184 to i64
  %186 = getelementptr inbounds ptr, ptr %183, i64 %185
  %187 = load ptr, ptr %186, align 8, !tbaa !28
  %188 = load i32, ptr %7, align 4, !tbaa !19
  call void @Abc_TtSetBit(ptr noundef %187, i32 noundef %188)
  br label %189

189:                                              ; preds = %180, %172
  br label %190

190:                                              ; preds = %189
  %191 = load i32, ptr %7, align 4, !tbaa !19
  %192 = add nsw i32 %191, 1
  store i32 %192, ptr %7, align 4, !tbaa !19
  br label %166, !llvm.loop !63

193:                                              ; preds = %166
  store i32 0, ptr %15, align 4
  br label %194

194:                                              ; preds = %193, %162
  call void @llvm.lifetime.end.p0(i64 8, ptr %17) #11
  %195 = load i32, ptr %15, align 4
  switch i32 %195, label %209 [
    i32 0, label %196
  ]

196:                                              ; preds = %194
  br label %197

197:                                              ; preds = %196
  %198 = load i32, ptr %6, align 4, !tbaa !19
  %199 = add nsw i32 %198, 1
  store i32 %199, ptr %6, align 4, !tbaa !19
  br label %137, !llvm.loop !64

200:                                              ; preds = %137
  %201 = load ptr, ptr %14, align 8, !tbaa !3
  %202 = icmp ne ptr %201, null
  br i1 %202, label %203, label %205

203:                                              ; preds = %200
  %204 = load ptr, ptr %14, align 8, !tbaa !3
  call void @free(ptr noundef %204) #11
  store ptr null, ptr %14, align 8, !tbaa !3
  br label %206

205:                                              ; preds = %200
  br label %206

206:                                              ; preds = %205, %203
  %207 = load ptr, ptr %5, align 8, !tbaa !58
  %208 = call i32 @fclose(ptr noundef %207)
  store i32 0, ptr %15, align 4
  br label %209

209:                                              ; preds = %206, %194, %130, %39, %31
  call void @llvm.lifetime.end.p0(i64 8, ptr %14) #11
  call void @llvm.lifetime.end.p0(i64 100, ptr %13) #11
  call void @llvm.lifetime.end.p0(i64 100, ptr %12) #11
  call void @llvm.lifetime.end.p0(i64 4, ptr %11) #11
  call void @llvm.lifetime.end.p0(i64 4, ptr %10) #11
  call void @llvm.lifetime.end.p0(i64 4, ptr %9) #11
  call void @llvm.lifetime.end.p0(i64 4, ptr %8) #11
  call void @llvm.lifetime.end.p0(i64 4, ptr %7) #11
  call void @llvm.lifetime.end.p0(i64 4, ptr %6) #11
  %210 = load i32, ptr %15, align 4
  switch i32 %210, label %214 [
    i32 0, label %211
  ]

211:                                              ; preds = %209
  br label %212

212:                                              ; preds = %211, %22
  %213 = load ptr, ptr %4, align 8, !tbaa !17
  store ptr %213, ptr %2, align 8
  store i32 1, ptr %15, align 4
  br label %214

214:                                              ; preds = %212, %209
  call void @llvm.lifetime.end.p0(i64 8, ptr %5) #11
  call void @llvm.lifetime.end.p0(i64 8, ptr %4) #11
  %215 = load ptr, ptr %2, align 8
  ret ptr %215
}