; Function Attrs: nounwind uwtable
define noalias noundef ptr @Res6_ManRead(ptr noundef %0) local_unnamed_addr #0 {
  %2 = alloca i32, align 4
  %3 = alloca i32, align 4
  %4 = alloca i32, align 4
  %5 = alloca i32, align 4
  %6 = alloca [100 x i8], align 16
  %7 = alloca [100 x i8], align 16
  %8 = tail call noalias ptr @fopen(ptr noundef %0, ptr noundef nonnull @.str)
  %9 = icmp eq ptr %8, null
  br i1 %9, label %10, label %12

10:                                               ; preds = %1
  %11 = tail call i32 (ptr, ...) @printf(ptr noundef nonnull dereferenceable(1) @.str.1, ptr noundef %0)
  br label %99

12:                                               ; preds = %1
  call void @llvm.lifetime.start.p0(i64 4, ptr nonnull %2) #21
  call void @llvm.lifetime.start.p0(i64 4, ptr nonnull %3) #21
  call void @llvm.lifetime.start.p0(i64 4, ptr nonnull %4) #21
  call void @llvm.lifetime.start.p0(i64 4, ptr nonnull %5) #21
  call void @llvm.lifetime.start.p0(i64 100, ptr nonnull %6) #21
  call void @llvm.lifetime.start.p0(i64 100, ptr nonnull %7) #21
  %13 = call ptr @fgets(ptr noundef nonnull %7, i32 noundef 100, ptr noundef nonnull %8)
  %14 = icmp eq ptr %13, null
  br i1 %14, label %15, label %17

15:                                               ; preds = %12
  %16 = call i32 (ptr, ...) @printf(ptr noundef nonnull dereferenceable(1) @.str.2, ptr noundef %0)
  br label %.thread90

17:                                               ; preds = %12
  %18 = call i32 (ptr, ptr, ...) @__isoc99_sscanf(ptr noundef nonnull %13, ptr noundef nonnull @.str.3, ptr noundef nonnull %6, ptr noundef nonnull %2, ptr noundef nonnull %3, ptr noundef nonnull %4, ptr noundef nonnull %5) #21
  %.not = icmp eq i32 %18, 5
  br i1 %.not, label %21, label %19

19:                                               ; preds = %17
  %20 = call i32 (ptr, ...) @printf(ptr noundef nonnull dereferenceable(1) @.str.4, ptr noundef %0)
  br label %.thread90

21:                                               ; preds = %17
  %22 = load i32, ptr %2, align 4, !tbaa !3
  %23 = load i32, ptr %3, align 4, !tbaa !3
  %24 = load i32, ptr %4, align 4, !tbaa !3
  %25 = load i32, ptr %5, align 4, !tbaa !3
  %26 = call fastcc ptr @Res6_ManStart(i32 noundef %22, i32 noundef %23, i32 noundef %24, i32 noundef %25)
  %27 = load i32, ptr %5, align 4, !tbaa !3
  %28 = add nsw i32 %27, 100
  %29 = sext i32 %28 to i64
  %30 = call noalias ptr @malloc(i64 noundef %29) #20
  %31 = getelementptr inbounds nuw i8, ptr %26, i64 4
  %32 = load i32, ptr %31, align 4, !tbaa !37
  %33 = icmp sgt i32 %32, 1
  br i1 %33, label %.lr.ph100, label %.preheader93

.lr.ph100:                                        ; preds = %21
  %34 = getelementptr inbounds nuw i8, ptr %26, i64 16
  %35 = getelementptr inbounds nuw i8, ptr %26, i64 56
  %wide.trip.count114 = zext nneg i32 %32 to i64
  br label %41

.preheader93:                                     ; preds = %._crit_edge, %21
  %36 = getelementptr inbounds nuw i8, ptr %26, i64 12
  %37 = load i32, ptr %36, align 4, !tbaa !48
  %.not107 = icmp eq i32 %37, 31
  br i1 %.not107, label %._crit_edge106, label %.lr.ph105

.lr.ph105:                                        ; preds = %.preheader93
  %38 = shl nuw nsw i32 1, %37
  %39 = getelementptr inbounds nuw i8, ptr %26, i64 16
  %40 = getelementptr inbounds nuw i8, ptr %26, i64 64
  %wide.trip.count124 = zext nneg i32 %38 to i64
  br label %69

41:                                               ; preds = %.lr.ph100, %._crit_edge
  %indvars.iv111 = phi i64 [ 1, %.lr.ph100 ], [ %indvars.iv.next112, %._crit_edge ]
  %42 = load i32, ptr %5, align 4, !tbaa !3
  %43 = add nsw i32 %42, 100
  %44 = call ptr @fgets(ptr noundef %30, i32 noundef %43, ptr noundef nonnull %8)
  %.not86 = icmp eq ptr %44, null
  br i1 %.not86, label %49, label %.preheader94

.preheader94:                                     ; preds = %41
  %45 = load i32, ptr %34, align 8, !tbaa !55
  %46 = icmp sgt i32 %45, 0
  br i1 %46, label %.lr.ph, label %._crit_edge

.lr.ph:                                           ; preds = %.preheader94
  %47 = shl nuw nsw i64 %indvars.iv111, 1
  %48 = or disjoint i64 %47, 1
  %wide.trip.count = zext nneg i32 %45 to i64
  br label %54

49:                                               ; preds = %41
  %50 = trunc nuw nsw i64 %indvars.iv111 to i32
  %51 = call i32 (ptr, ...) @printf(ptr noundef nonnull dereferenceable(1) @.str.5, i32 noundef %50, ptr noundef %0)
  call fastcc void @Res6_ManStop(ptr noundef %26)
  %.not85 = icmp eq ptr %30, null
  br i1 %.not85, label %.thread, label %52

52:                                               ; preds = %49
  call void @free(ptr noundef nonnull %30) #21
  br label %.thread

.thread:                                          ; preds = %52, %49
  %53 = call i32 @fclose(ptr noundef nonnull %8)
  br label %.thread90

54:                                               ; preds = %.lr.ph, %68
  %indvars.iv = phi i64 [ 0, %.lr.ph ], [ %indvars.iv.next, %68 ]
  %55 = getelementptr inbounds nuw i8, ptr %44, i64 %indvars.iv
  %56 = load i8, ptr %55, align 1, !tbaa !7
  switch i8 %56, label %68 [
    i8 48, label %.sink.split
    i8 49, label %57
  ]

57:                                               ; preds = %54
  br label %.sink.split

.sink.split:                                      ; preds = %54, %57
  %.sink134 = phi i64 [ %47, %57 ], [ %48, %54 ]
  %58 = load ptr, ptr %35, align 8, !tbaa !40
  %59 = getelementptr inbounds nuw ptr, ptr %58, i64 %.sink134
  %60 = load ptr, ptr %59, align 8, !tbaa !41
  %61 = and i64 %indvars.iv, 63
  %62 = shl nuw i64 1, %61
  %63 = lshr i64 %indvars.iv, 6
  %64 = and i64 %63, 67108863
  %65 = getelementptr inbounds nuw i64, ptr %60, i64 %64
  %66 = load i64, ptr %65, align 8, !tbaa !42
  %67 = or i64 %66, %62
  store i64 %67, ptr %65, align 8, !tbaa !42
  br label %68

68:                                               ; preds = %.sink.split, %54
  %indvars.iv.next = add nuw nsw i64 %indvars.iv, 1
  %exitcond.not = icmp eq i64 %indvars.iv.next, %wide.trip.count
  br i1 %exitcond.not, label %._crit_edge, label %54, !llvm.loop !59

._crit_edge:                                      ; preds = %68, %.preheader94
  %indvars.iv.next112 = add nuw nsw i64 %indvars.iv111, 1
  %exitcond115.not = icmp eq i64 %indvars.iv.next112, %wide.trip.count114
  br i1 %exitcond115.not, label %.preheader93, label %41, !llvm.loop !60

69:                                               ; preds = %.lr.ph105, %._crit_edge103
  %indvars.iv121 = phi i64 [ 0, %.lr.ph105 ], [ %indvars.iv.next122, %._crit_edge103 ]
  %70 = load i32, ptr %5, align 4, !tbaa !3
  %71 = add nsw i32 %70, 100
  %72 = call ptr @fgets(ptr noundef %30, i32 noundef %71, ptr noundef nonnull %8)
  %.not84 = icmp eq ptr %72, null
  br i1 %.not84, label %75, label %.preheader

.preheader:                                       ; preds = %69
  %73 = load i32, ptr %39, align 8, !tbaa !55
  %74 = icmp sgt i32 %73, 0
  br i1 %74, label %.lr.ph102, label %._crit_edge103

.lr.ph102:                                        ; preds = %.preheader
  %wide.trip.count119 = zext nneg i32 %73 to i64
  br label %80

75:                                               ; preds = %69
  %76 = trunc nuw nsw i64 %indvars.iv121 to i32
  %77 = call i32 (ptr, ...) @printf(ptr noundef nonnull dereferenceable(1) @.str.5, i32 noundef %76, ptr noundef %0)
  call fastcc void @Res6_ManStop(ptr noundef %26)
  %.not83 = icmp eq ptr %30, null
  br i1 %.not83, label %.thread88, label %78

78:                                               ; preds = %75
  call void @free(ptr noundef nonnull %30) #21
  br label %.thread88

.thread88:                                        ; preds = %78, %75
  %79 = call i32 @fclose(ptr noundef nonnull %8)
  br label %.thread90

80:                                               ; preds = %.lr.ph102, %95
  %indvars.iv116 = phi i64 [ 0, %.lr.ph102 ], [ %indvars.iv.next117, %95 ]
  %81 = getelementptr inbounds nuw i8, ptr %72, i64 %indvars.iv116
  %82 = load i8, ptr %81, align 1, !tbaa !7
  %83 = icmp eq i8 %82, 49
  br i1 %83, label %84, label %95

84:                                               ; preds = %80
  %85 = load ptr, ptr %40, align 8, !tbaa !49
  %86 = getelementptr inbounds nuw ptr, ptr %85, i64 %indvars.iv121
  %87 = load ptr, ptr %86, align 8, !tbaa !41
  %88 = and i64 %indvars.iv116, 63
  %89 = shl nuw i64 1, %88
  %90 = lshr i64 %indvars.iv116, 6
  %91 = and i64 %90, 67108863
  %92 = getelementptr inbounds nuw i64, ptr %87, i64 %91
  %93 = load i64, ptr %92, align 8, !tbaa !42
  %94 = or i64 %93, %89
  store i64 %94, ptr %92, align 8, !tbaa !42
  br label %95

95:                                               ; preds = %80, %84
  %indvars.iv.next117 = add nuw nsw i64 %indvars.iv116, 1
  %exitcond120.not = icmp eq i64 %indvars.iv.next117, %wide.trip.count119
  br i1 %exitcond120.not, label %._crit_edge103, label %80, !llvm.loop !61

._crit_edge103:                                   ; preds = %95, %.preheader
  %indvars.iv.next122 = add nuw nsw i64 %indvars.iv121, 1
  %exitcond125.not = icmp eq i64 %indvars.iv.next122, %wide.trip.count124
  br i1 %exitcond125.not, label %._crit_edge106, label %69, !llvm.loop !62

._crit_edge106:                                   ; preds = %._crit_edge103, %.preheader93
  %.not82 = icmp eq ptr %30, null
  br i1 %.not82, label %97, label %96

96:                                               ; preds = %._crit_edge106
  call void @free(ptr noundef nonnull %30) #21
  br label %97

.thread90:                                        ; preds = %15, %19, %.thread, %.thread88
  call void @llvm.lifetime.end.p0(i64 100, ptr nonnull %7) #21
  call void @llvm.lifetime.end.p0(i64 100, ptr nonnull %6) #21
  call void @llvm.lifetime.end.p0(i64 4, ptr nonnull %5) #21
  call void @llvm.lifetime.end.p0(i64 4, ptr nonnull %4) #21
  call void @llvm.lifetime.end.p0(i64 4, ptr nonnull %3) #21
  call void @llvm.lifetime.end.p0(i64 4, ptr nonnull %2) #21
  br label %99

97:                                               ; preds = %._crit_edge106, %96
  %98 = call i32 @fclose(ptr noundef nonnull %8)
  call void @llvm.lifetime.end.p0(i64 100, ptr nonnull %7) #21
  call void @llvm.lifetime.end.p0(i64 100, ptr nonnull %6) #21
  call void @llvm.lifetime.end.p0(i64 4, ptr nonnull %5) #21
  call void @llvm.lifetime.end.p0(i64 4, ptr nonnull %4) #21
  call void @llvm.lifetime.end.p0(i64 4, ptr nonnull %3) #21
  call void @llvm.lifetime.end.p0(i64 4, ptr nonnull %2) #21
  br label %99

99:                                               ; preds = %97, %.thread90, %10
  %.5 = phi ptr [ null, %10 ], [ %26, %97 ], [ null, %.thread90 ]
  ret ptr %.5
}